; Function Attrs: nounwind uwtable
define dso_local noundef ptr @CreateExprContext(ptr noundef %0) local_unnamed_addr #0 {
  %2 = getelementptr inbounds nuw i8, ptr %0, i64 192
  %3 = load ptr, ptr %2, align 8
  %4 = load ptr, ptr @CurrentMemoryContext, align 8
  store ptr %3, ptr @CurrentMemoryContext, align 8
  %5 = tail call noundef ptr @palloc0(i64 noundef 144) #12
  store i32 381, ptr %5, align 4
  %6 = getelementptr inbounds nuw i8, ptr %5, i64 8
  tail call void @llvm.memset.p0.i64(ptr noundef nonnull align 8 dereferenceable(24) %6, i8 0, i64 24, i1 false)
  %7 = load ptr, ptr %2, align 8
  %8 = getelementptr inbounds nuw i8, ptr %5, i64 32
  store ptr %7, ptr %8, align 8
  %9 = tail call ptr @AllocSetContextCreateInternal(ptr noundef %7, ptr noundef nonnull @.str.1, i64 noundef 0, i64 noundef 8192, i64 noundef 8388608) #12
  %10 = getelementptr inbounds nuw i8, ptr %5, i64 40
  store ptr %9, ptr %10, align 8
  %11 = getelementptr inbounds nuw i8, ptr %0, i64 176
  %12 = load ptr, ptr %11, align 8
  %13 = getelementptr inbounds nuw i8, ptr %5, i64 48
  store ptr %12, ptr %13, align 8
  %14 = getelementptr inbounds nuw i8, ptr %0, i64 168
  %15 = load ptr, ptr %14, align 8
  %16 = getelementptr inbounds nuw i8, ptr %5, i64 56
  store ptr %15, ptr %16, align 8
  %17 = getelementptr inbounds nuw i8, ptr %5, i64 64
  %18 = getelementptr inbounds nuw i8, ptr %5, i64 88
  tail call void @llvm.memset.p0.i64(ptr noundef nonnull align 8 dereferenceable(24) %17, i8 0, i64 24, i1 false)
  store i8 1, ptr %18, align 8
  %19 = getelementptr inbounds nuw i8, ptr %5, i64 96
  store i64 0, ptr %19, align 8
  %20 = getelementptr inbounds nuw i8, ptr %5, i64 104
  store i8 1, ptr %20, align 8
  %21 = getelementptr inbounds nuw i8, ptr %5, i64 128
  store ptr %0, ptr %21, align 8
  %22 = getelementptr inbounds nuw i8, ptr %5, i64 136
  store ptr null, ptr %22, align 8
  %23 = getelementptr inbounds nuw i8, ptr %0, i64 240
  %24 = load ptr, ptr %23, align 8
  %25 = tail call ptr @lcons(ptr noundef nonnull %5, ptr noundef %24) #12
  store ptr %25, ptr %23, align 8
  store ptr %4, ptr @CurrentMemoryContext, align 8
  ret ptr %5
}